; ModuleID = '31/1669.c'
source_filename = "31/1669.c"
target datalayout = "e-m:e-p270:32:32-p271:32:32-p272:64:64-i64:64-f80:128-n8:16:32:64-S128"
target triple = "x86_64-pc-linux-gnu"

%struct.student = type { [50 x i8], [50 x i8], [1 x i8], i32, float, [50 x i8], %struct.student* }

@.str = private unnamed_addr constant [13 x i8] c"%s%s%s%d%f%s\00", align 1
@.str.1 = private unnamed_addr constant [4 x i8] c"end\00", align 1
@.str.2 = private unnamed_addr constant [3 x i8] c"%s\00", align 1
@.str.3 = private unnamed_addr constant [11 x i8] c"%s%s%d%f%s\00", align 1
@.str.4 = private unnamed_addr constant [19 x i8] c"%s %s %s %d %g %s\0A\00", align 1

; Function Attrs: noinline nounwind uwtable
define dso_local void @main() #0 {
  %1 = alloca %struct.student*, align 8
  %2 = alloca %struct.student*, align 8
  %3 = alloca %struct.student*, align 8
  %4 = call noalias i8* @malloc(i64 176) #4
  %5 = bitcast i8* %4 to %struct.student*
  store %struct.student* %5, %struct.student** %3, align 8
  store %struct.student* %5, %struct.student** %2, align 8
  %6 = load %struct.student*, %struct.student** %2, align 8
  store %struct.student* %6, %struct.student** %1, align 8
  %7 = load %struct.student*, %struct.student** %2, align 8
  %8 = getelementptr inbounds %struct.student, %struct.student* %7, i32 0, i32 0
  %9 = getelementptr inbounds [50 x i8], [50 x i8]* %8, i64 0, i64 0
  %10 = load %struct.student*, %struct.student** %2, align 8
  %11 = getelementptr inbounds %struct.student, %struct.student* %10, i32 0, i32 1
  %12 = getelementptr inbounds [50 x i8], [50 x i8]* %11, i64 0, i64 0
  %13 = load %struct.student*, %struct.student** %2, align 8
  %14 = getelementptr inbounds %struct.student, %struct.student* %13, i32 0, i32 2
  %15 = load %struct.student*, %struct.student** %2, align 8
  %16 = getelementptr inbounds %struct.student, %struct.student* %15, i32 0, i32 3
  %17 = load %struct.student*, %struct.student** %2, align 8
  %18 = getelementptr inbounds %struct.student, %struct.student* %17, i32 0, i32 4
  %19 = load %struct.student*, %struct.student** %2, align 8
  %20 = getelementptr inbounds %struct.student, %struct.student* %19, i32 0, i32 5
  %21 = getelementptr inbounds [50 x i8], [50 x i8]* %20, i64 0, i64 0
  %22 = call i32 (i8*, ...) @__isoc99_scanf(i8* getelementptr inbounds ([13 x i8], [13 x i8]* @.str, i64 0, i64 0), i8* %9, i8* %12, [1 x i8]* %14, i32* %16, float* %18, i8* %21)
  %23 = load %struct.student*, %struct.student** %3, align 8
  %24 = getelementptr inbounds %struct.student, %struct.student* %23, i32 0, i32 6
  store %struct.student* null, %struct.student** %24, align 8
  br label %25

25:                                               ; preds = %44, %0
  %26 = load %struct.student*, %struct.student** %2, align 8
  %27 = getelementptr inbounds %struct.student, %struct.student* %26, i32 0, i32 0
  %28 = getelementptr inbounds [50 x i8], [50 x i8]* %27, i64 0, i64 0
  %29 = call i32 @strcmp(i8* %28, i8* getelementptr inbounds ([4 x i8], [4 x i8]* @.str.1, i64 0, i64 0)) #5
  %30 = icmp ne i32 %29, 0
  br i1 %30, label %31, label %63

31:                                               ; preds = %25
  %32 = call noalias i8* @malloc(i64 176) #4
  %33 = bitcast i8* %32 to %struct.student*
  store %struct.student* %33, %struct.student** %2, align 8
  %34 = load %struct.student*, %struct.student** %2, align 8
  %35 = getelementptr inbounds %struct.student, %struct.student* %34, i32 0, i32 0
  %36 = getelementptr inbounds [50 x i8], [50 x i8]* %35, i64 0, i64 0
  %37 = call i32 (i8*, ...) @__isoc99_scanf(i8* getelementptr inbounds ([3 x i8], [3 x i8]* @.str.2, i64 0, i64 0), i8* %36)
  %38 = load %struct.student*, %struct.student** %2, align 8
  %39 = getelementptr inbounds %struct.student, %struct.student* %38, i32 0, i32 0
  %40 = getelementptr inbounds [50 x i8], [50 x i8]* %39, i64 0, i64 0
  %41 = call i32 @strcmp(i8* %40, i8* getelementptr inbounds ([4 x i8], [4 x i8]* @.str.1, i64 0, i64 0)) #5
  %42 = icmp eq i32 %41, 0
  br i1 %42, label %43, label %44

43:                                               ; preds = %31
  br label %63

44:                                               ; preds = %31
  %45 = load %struct.student*, %struct.student** %2, align 8
  %46 = getelementptr inbounds %struct.student, %struct.student* %45, i32 0, i32 1
  %47 = getelementptr inbounds [50 x i8], [50 x i8]* %46, i64 0, i64 0
  %48 = load %struct.student*, %struct.student** %2, align 8
  %49 = getelementptr inbounds %struct.student, %struct.student* %48, i32 0, i32 2
  %50 = load %struct.student*, %struct.student** %2, align 8
  %51 = getelementptr inbounds %struct.student, %struct.student* %50, i32 0, i32 3
  %52 = load %struct.student*, %struct.student** %2, align 8
  %53 = getelementptr inbounds %struct.student, %struct.student* %52, i32 0, i32 4
  %54 = load %struct.student*, %struct.student** %2, align 8
  %55 = getelementptr inbounds %struct.student, %struct.student* %54, i32 0, i32 5
  %56 = getelementptr inbounds [50 x i8], [50 x i8]* %55, i64 0, i64 0
  %57 = call i32 (i8*, ...) @__isoc99_scanf(i8* getelementptr inbounds ([11 x i8], [11 x i8]* @.str.3, i64 0, i64 0), i8* %47, [1 x i8]* %49, i32* %51, float* %53, i8* %56)
  %58 = load %struct.student*, %struct.student** %2, align 8
  store %struct.student* %58, %struct.student** %3, align 8
  %59 = load %struct.student*, %struct.student** %1, align 8
  %60 = load %struct.student*, %struct.student** %3, align 8
  %61 = getelementptr inbounds %struct.student, %struct.student* %60, i32 0, i32 6
  store %struct.student* %59, %struct.student** %61, align 8
  %62 = load %struct.student*, %struct.student** %2, align 8
  store %struct.student* %62, %struct.student** %1, align 8
  br label %25

63:                                               ; preds = %43, %25
  %64 = load %struct.student*, %struct.student** %1, align 8
  store %struct.student* %64, %struct.student** %3, align 8
  br label %65

65:                                               ; preds = %68, %63
  %66 = load %struct.student*, %struct.student** %3, align 8
  %67 = icmp ne %struct.student* %66, null
  br i1 %67, label %68, label %92

68:                                               ; preds = %65
  %69 = load %struct.student*, %struct.student** %3, align 8
  %70 = getelementptr inbounds %struct.student, %struct.student* %69, i32 0, i32 0
  %71 = getelementptr inbounds [50 x i8], [50 x i8]* %70, i64 0, i64 0
  %72 = load %struct.student*, %struct.student** %3, align 8
  %73 = getelementptr inbounds %struct.student, %struct.student* %72, i32 0, i32 1
  %74 = getelementptr inbounds [50 x i8], [50 x i8]* %73, i64 0, i64 0
  %75 = load %struct.student*, %struct.student** %3, align 8
  %76 = getelementptr inbounds %struct.student, %struct.student* %75, i32 0, i32 2
  %77 = getelementptr inbounds [1 x i8], [1 x i8]* %76, i64 0, i64 0
  %78 = load %struct.student*, %struct.student** %3, align 8
  %79 = getelementptr inbounds %struct.student, %struct.student* %78, i32 0, i32 3
  %80 = load i32, i32* %79, align 8
  %81 = load %struct.student*, %struct.student** %3, align 8
  %82 = getelementptr inbounds %struct.student, %struct.student* %81, i32 0, i32 4
  %83 = load float, float* %82, align 4
  %84 = fpext float %83 to double
  %85 = load %struct.student*, %struct.student** %3, align 8
  %86 = getelementptr inbounds %struct.student, %struct.student* %85, i32 0, i32 5
  %87 = getelementptr inbounds [50 x i8], [50 x i8]* %86, i64 0, i64 0
  %88 = call i32 (i8*, ...) @printf(i8* getelementptr inbounds ([19 x i8], [19 x i8]* @.str.4, i64 0, i64 0), i8* %71, i8* %74, i8* %77, i32 %80, double %84, i8* %87)
  %89 = load %struct.student*, %struct.student** %3, align 8
  %90 = getelementptr inbounds %struct.student, %struct.student* %89, i32 0, i32 6
  %91 = load %struct.student*, %struct.student** %90, align 8
  store %struct.student* %91, %struct.student** %3, align 8
  br label %65

92:                                               ; preds = %65
  ret void
}

; Function Attrs: nounwind
declare dso_local noalias i8* @malloc(i64) #1

declare dso_local i32 @__isoc99_scanf(i8*, ...) #2

; Function Attrs: nounwind readonly
declare dso_local i32 @strcmp(i8*, i8*) #3

declare dso_local i32 @printf(i8*, ...) #2


!llvm.module.flags = !{!0}
!llvm.ident = !{!1}

!0 = !{i32 1, !"wchar_size", i32 4}
!1 = !{!"clang version 10.0.0-4ubuntu1 "}
